; Function Attrs: nounwind uwtable
define dso_local void @acct_storage_g_send_all(ptr noundef %0, i64 noundef %1, i32 noundef %2) local_unnamed_addr #0 {
  %4 = load i32, ptr @plugin_inited, align 4
  %5 = icmp eq i32 %4, 1
  br i1 %5, label %8, label %6

6:                                                ; preds = %3
  %7 = load ptr, ptr getelementptr inbounds nuw (i8, ptr @ops, i64 624), align 8
  tail call void %7(ptr noundef %0, i64 noundef %1, i32 noundef %2) #8
  br label %8

8:                                                ; preds = %3, %6
  ret void
}